target datalayout = "e-m:e-p270:32:32-p271:32:32-p272:64:64-i64:64-i128:128-f80:128-n8:16:32:64-S128"
target triple = "x86_64-unknown-linux-gnu"

%struct.UResourceBundle = type { ptr, ptr, ptr, ptr, ptr, [64 x i8], i32, i32, i8, i8, i32, i32, i32, i32 }
%struct.UResourceDataEntry = type { ptr, ptr, ptr, ptr, ptr, %struct.ResourceData, [3 x i8], i32, i32 }
%struct.ResourceData = type { ptr, ptr, ptr, ptr, i32, i32, ptr, i32, i32, i8, i8, i8, i8 }

; Function Attrs: mustprogress nounwind uwtable
define ptr @ures_getName_75(ptr noundef %resB) #0 {
entry:
  %retval = alloca ptr, align 8
  %resB.addr = alloca ptr, align 8
  store ptr %resB, ptr %resB.addr, align 8
  %0 = load ptr, ptr %resB.addr, align 8
  %cmp = icmp eq ptr %0, null
  br i1 %cmp, label %if.then, label %if.end

if.then:                                          ; preds = %entry
  store ptr null, ptr %retval, align 8
  br label %return

if.end:                                           ; preds = %entry
  %1 = load ptr, ptr %resB.addr, align 8
  %fData = getelementptr inbounds %struct.UResourceBundle, ptr %1, i32 0, i32 1
  %2 = load ptr, ptr %fData, align 8
  %fName = getelementptr inbounds %struct.UResourceDataEntry, ptr %2, i32 0, i32 0
  %3 = load ptr, ptr %fName, align 8
  store ptr %3, ptr %retval, align 8
  br label %return

return:                                           ; preds = %if.end, %if.then
  %4 = load ptr, ptr %retval, align 8
  ret ptr %4
}