; Function Attrs: mustprogress nofree norecurse nosync nounwind willreturn memory(read, inaccessiblemem: none) uwtable
define ptr @ures_getName_75(ptr noundef readonly %resB) local_unnamed_addr #13 {
entry:
  %cmp = icmp eq ptr %resB, null
  br i1 %cmp, label %return, label %if.end

if.end:                                           ; preds = %entry
  %fData = getelementptr inbounds i8, ptr %resB, i64 8
  %0 = load ptr, ptr %fData, align 8
  %1 = load ptr, ptr %0, align 8
  br label %return

return:                                           ; preds = %entry, %if.end
  %retval.0 = phi ptr [ %1, %if.end ], [ null, %entry ]
  ret ptr %retval.0
}